target datalayout = "e-m:e-p270:32:32-p271:32:32-p272:64:64-i64:64-i128:128-f80:128-n8:16:32:64-S128"
target triple = "x86_64-pc-linux-gnu"

%"struct.std::_Vector_base" = type { %"struct.std::_Vector_base<double, std::allocator<double>>::_Vector_impl" }
%"struct.std::_Vector_base<double, std::allocator<double>>::_Vector_impl" = type { %"struct.std::_Vector_base<double, std::allocator<double>>::_Vector_impl_data" }
%"struct.std::_Vector_base<double, std::allocator<double>>::_Vector_impl_data" = type { ptr, ptr, ptr }

; Function Attrs: mustprogress nounwind uwtable
define linkonce_odr hidden noundef nonnull align 8 dereferenceable(8) ptr @_ZNKSt6vectorIdSaIdEEixEm(ptr noundef nonnull align 8 dereferenceable(24) %0, i64 noundef %1) #3 comdat align 2 {
  %3 = alloca ptr, align 8
  %4 = alloca i64, align 8
  store ptr %0, ptr %3, align 8, !tbaa !23
  store i64 %1, ptr %4, align 8, !tbaa !29
  %5 = load ptr, ptr %3, align 8
  %6 = getelementptr inbounds nuw %"struct.std::_Vector_base", ptr %5, i32 0, i32 0
  %7 = getelementptr inbounds nuw %"struct.std::_Vector_base<double, std::allocator<double>>::_Vector_impl_data", ptr %6, i32 0, i32 0
  %8 = load ptr, ptr %7, align 8, !tbaa !31
  %9 = load i64, ptr %4, align 8, !tbaa !29
  %10 = getelementptr inbounds nuw double, ptr %8, i64 %9
  ret ptr %10
}

; Function Attrs: mustprogress nounwind uwtable
define hidden noundef float @_ZN19OpenColorIO_v2_5dev7LogUtil15GetLogSideBreakERKSt6vectorIdSaIdEEd(ptr noundef nonnull align 8 dereferenceable(24) %0, double noundef %1) #3 {
  %3 = alloca ptr, align 8
  %4 = alloca double, align 8
  %5 = alloca float, align 4
  store ptr %0, ptr %3, align 8, !tbaa !23
  store double %1, ptr %4, align 8, !tbaa !25
  call void @llvm.lifetime.start.p0(i64 4, ptr %5) #15
  %6 = load ptr, ptr %3, align 8, !tbaa !23
  %7 = call noundef nonnull align 8 dereferenceable(8) ptr @_ZNKSt6vectorIdSaIdEEixEm(ptr noundef nonnull align 8 dereferenceable(24) %6, i64 noundef 2) #15
  %8 = load double, ptr %7, align 8, !tbaa !25
  %9 = load ptr, ptr %3, align 8, !tbaa !23
  %10 = call noundef nonnull align 8 dereferenceable(8) ptr @_ZNKSt6vectorIdSaIdEEixEm(ptr noundef nonnull align 8 dereferenceable(24) %9, i64 noundef 4) #15
  %11 = load double, ptr %10, align 8, !tbaa !25
  %12 = load ptr, ptr %3, align 8, !tbaa !23
  %13 = call noundef nonnull align 8 dereferenceable(8) ptr @_ZNKSt6vectorIdSaIdEEixEm(ptr noundef nonnull align 8 dereferenceable(24) %12, i64 noundef 3) #15
  %14 = load double, ptr %13, align 8, !tbaa !25
  %15 = call double @llvm.fmuladd.f64(double %8, double %11, double %14)
  %16 = fptrunc double %15 to float
  %17 = fpext float %16 to double
  %18 = call double @log2(double noundef %17) #15, !tbaa !27
  %19 = fptrunc double %18 to float
  store float %19, ptr %5, align 4, !tbaa !45
  %20 = load ptr, ptr %3, align 8, !tbaa !23
  %21 = call noundef nonnull align 8 dereferenceable(8) ptr @_ZNKSt6vectorIdSaIdEEixEm(ptr noundef nonnull align 8 dereferenceable(24) %20, i64 noundef 0) #15
  %22 = load double, ptr %21, align 8, !tbaa !25
  %23 = fptrunc double %22 to float
  %24 = fpext float %23 to double
  %25 = load double, ptr %4, align 8, !tbaa !25
  %26 = fptrunc double %25 to float
  %27 = fpext float %26 to double
  %28 = call double @log2(double noundef %27) #15, !tbaa !27
  %29 = fdiv double %24, %28
  %30 = load float, ptr %5, align 4, !tbaa !45
  %31 = fpext float %30 to double
  %32 = fmul double %31, %29
  %33 = fptrunc double %32 to float
  store float %33, ptr %5, align 4, !tbaa !45
  %34 = load ptr, ptr %3, align 8, !tbaa !23
  %35 = call noundef nonnull align 8 dereferenceable(8) ptr @_ZNKSt6vectorIdSaIdEEixEm(ptr noundef nonnull align 8 dereferenceable(24) %34, i64 noundef 1) #15
  %36 = load double, ptr %35, align 8, !tbaa !25
  %37 = fptrunc double %36 to float
  %38 = load float, ptr %5, align 4, !tbaa !45
  %39 = fadd float %38, %37
  store float %39, ptr %5, align 4, !tbaa !45
  %40 = load float, ptr %5, align 4, !tbaa !45
  call void @llvm.lifetime.end.p0(i64 4, ptr %5) #15
  ret float %40
}