; Function Attrs: mustprogress nofree nounwind willreturn memory(readwrite, inaccessiblemem: write) uwtable
define hidden noundef float @_ZN19OpenColorIO_v2_5dev7LogUtil15GetLogSideBreakERKSt6vectorIdSaIdEEd(ptr noundef nonnull readonly align 8 captures(none) dereferenceable(24) %0, double noundef %1) local_unnamed_addr #6 {
  %3 = load ptr, ptr %0, align 8, !tbaa !13
  %4 = getelementptr inbounds nuw i8, ptr %3, i64 16
  %5 = load double, ptr %4, align 8, !tbaa !16
  %6 = getelementptr inbounds nuw i8, ptr %3, i64 32
  %7 = load double, ptr %6, align 8, !tbaa !16
  %8 = getelementptr inbounds nuw i8, ptr %3, i64 24
  %9 = load double, ptr %8, align 8, !tbaa !16
  %10 = tail call double @llvm.fmuladd.f64(double %5, double %7, double %9)
  %11 = fptrunc double %10 to float
  %12 = fpext float %11 to double
  %13 = tail call double @log2(double noundef %12) #19, !tbaa !18
  %14 = fptrunc double %13 to float
  %15 = load double, ptr %3, align 8, !tbaa !16
  %16 = fptrunc double %15 to float
  %17 = fpext float %16 to double
  %18 = fptrunc double %1 to float
  %19 = fpext float %18 to double
  %20 = tail call double @log2(double noundef %19) #19, !tbaa !18
  %21 = fdiv double %17, %20
  %22 = fpext float %14 to double
  %23 = fmul double %21, %22
  %24 = fptrunc double %23 to float
  %25 = getelementptr inbounds nuw i8, ptr %3, i64 8
  %26 = load double, ptr %25, align 8, !tbaa !16
  %27 = fptrunc double %26 to float
  %28 = fadd float %27, %24
  ret float %28
}